 unpack

 Timestamp is 5db2d02f (Fri Oct 25 11:36:31 2019)

 Preferred load address is 10000000

 Start         Length     Name                   Class
 0001:00000000 0000a2d2H .text$mn                CODE
 0002:00000000 000000d0H .idata$5                DATA
 0002:000000d0 00000004H .CRT$XCA                DATA
 0002:000000d4 00000004H .CRT$XCZ                DATA
 0002:000000d8 00000004H .CRT$XIA                DATA
 0002:000000dc 00000004H .CRT$XIAA               DATA
 0002:000000e0 00000004H .CRT$XIC                DATA
 0002:000000e4 00000004H .CRT$XIZ                DATA
 0002:000000f0 000024f8H .rdata                  DATA
 0002:000025e8 00000090H .rdata$debug            DATA
 0002:00002680 00000004H .rdata$sxdata           DATA
 0002:00002684 00000004H .rtc$IAA                DATA
 0002:00002688 00000004H .rtc$IZZ                DATA
 0002:0000268c 00000004H .rtc$TAA                DATA
 0002:00002690 00000004H .rtc$TZZ                DATA
 0002:00002698 00000064H .xdata$x                DATA
 0002:00002700 00000211H .edata                  DATA
 0002:00002914 00000050H .idata$2                DATA
 0002:00002964 00000014H .idata$3                DATA
 0002:00002978 000000d0H .idata$4                DATA
 0002:00002a48 00000316H .idata$6                DATA
 0003:00000000 00000b04H .data                   DATA
 0003:00000b08 0000077cH .bss                    DATA
 0004:00000000 00000058H .rsrc$01                DATA
 0004:00000060 00000308H .rsrc$02                DATA

  Address         Publics by Value              Rva+Base       Lib:Object

 0000:00000000       ___guard_flags             00000000     <absolute>
 0000:00000000       ___guard_fids_count        00000000     <absolute>
 0000:00000000       ___guard_fids_table        00000000     <absolute>
 0000:00000001       ___safe_se_handler_count   00000001     <absolute>
 0000:00000000       ___ImageBase               10000000     <linker-defined>
 0001:00000000       ?getIndex@cpool@@QAEPAUcpindex@@C@Z 10001000 f i bands.obj
 0001:00000021       ?getIntCount@band@@QAEHH@Z 10001021 f   bands.obj
 0001:000000ef       ?getIntTotal@band@@QAEHXZ  100010ef f   bands.obj
 0001:0000017b       ?getLong@band@@QAE_JAAU1@_N@Z 1000117b f   bands.obj
 0001:000001b0       ?getRefCommon@band@@QAEPAUentry@@PAUcpindex@@_N@Z 100011b0 f   bands.obj
 0001:00000221       ?initIndexes@band@@SAXPAUunpacker@@@Z 10001221 f   bands.obj
 0001:00000262       ?makeBands@band@@SAPAU1@PAUunpacker@@@Z 10001262 f   bands.obj
 0001:000002dd       ?readData@band@@QAEXH@Z    100012dd f   bands.obj
 0001:0000048b       ?setIndex@band@@QAEXPAUcpindex@@@Z 1000148b f   bands.obj
 0001:00000495       ?setIndexByTag@band@@QAEXC@Z 10001495 f   bands.obj
 0001:000004b1       ?compareTo@bytes@@QAEHAAU1@@Z 100014b1 f   bytes.obj
 0001:000004e8       ?copyFrom@bytes@@QAEXPBXII@Z 100014e8 f   bytes.obj
 0001:00000502       ?ensureSize@fillbytes@@QAEXI@Z 10001502 f   bytes.obj
 0001:00000522       ?free@bytes@@QAEXXZ        10001522 f   bytes.obj
 0001:00000544       ?freeAll@ptrlist@@QAEXXZ   10001544 f   bytes.obj
 0001:00000581       ?grow@fillbytes@@QAEPACI@Z 10001581 f   bytes.obj
 0001:00000618       ?indexOf@ptrlist@@QAEHPBX@Z 10001618 f   bytes.obj
 0001:0000063e       ?malloc@bytes@@QAEXI@Z     1000163e f   bytes.obj
 0001:00000691       ?realloc@bytes@@QAEXI@Z    10001691 f   bytes.obj
 0001:00000727       ?saveFrom@bytes@@QAEXPBXI@Z 10001727 f   bytes.obj
 0001:0000074f       ?writeTo@bytes@@QAEPACPAC@Z 1000174f f   bytes.obj
 0001:00000796       ?findByIndex@coding@@SAPAU1@H@Z 10001796 f   coding.obj
 0001:000007b3       ?findBySpec@coding@@SAPAU1@H@Z 100017b3 f   coding.obj
 0001:0000080b       ?findBySpec@coding@@SAPAU1@HHHH@Z 1000180b f   coding.obj
 0001:00000850       ?free@coding@@QAEXXZ       10001850 f   coding.obj
 0001:0000088d       ?getInt@value_stream@@QAEHXZ 1000188d f   coding.obj
 0001:00000b0c       ?init@coding@@QAEPAU1@XZ   10001b0c f   coding.obj
 0001:00000d70       ?init@coding_method@@QAEXAAPACPAC0HPAUcoding@@HPAUintlist@@@Z 10001d70 f   coding.obj
 0001:0000145c       ?init@value_stream@@QAEXPAC0PAUcoding@@@Z 1000245c f   coding.obj
 0001:0000147e       ?parse@coding@@SAIAAPACHH@Z 1000247e f   coding.obj
 0001:000014e7       ?parseMultiple@coding@@SAXAAPACHPACHH@Z 100024e7 f   coding.obj
 0001:00001570       ?parse_lgH@coding@@SAIAAPACHHH@Z 10002570 f   coding.obj
 0001:000015d6       ?reset@coding_method@@QAEXPAUvalue_stream@@@Z 100025d6 f   coding.obj
 0001:000015f8       ?setCoding@value_stream@@QAEXPAUcoding@@@Z 100025f8 f   coding.obj
 0001:000016f6       ?sumInUnsignedRange@coding@@QAEHHH@Z 100026f6 f   coding.obj
 0001:00001722       ?CallLongMethod@JNIEnv_@@QAA_JPAV_jobject@@PAU_jmethodID@@ZZ 10002722 f i jni.obj
 0001:0000173d       ?CallStaticObjectMethod@JNIEnv_@@QAAPAV_jobject@@PAV_jclass@@PAU_jmethodID@@ZZ 1000273d f i jni.obj
 0001:00001758       ?SetLongField@JNIEnv_@@QAEXPAV_jobject@@PAU_jfieldID@@_J@Z 10002758 f i jni.obj
 0001:00001774       ?current@unpacker@@SAPAU1@XZ 10002774 f   jni.obj
 0001:00001911       _Java_com_sun_java_util_jar_pack_NativeUnpack_finish@8 10002911 f   jni.obj
 0001:0000195c       _Java_com_sun_java_util_jar_pack_NativeUnpack_getNextFile@12 1000295c f   jni.obj
 0001:00001aeb       _Java_com_sun_java_util_jar_pack_NativeUnpack_getOption@12 10002aeb f   jni.obj
 0001:00001b6e       _Java_com_sun_java_util_jar_pack_NativeUnpack_getUnusedInput@8 10002b6e f   jni.obj
 0001:00001bfa       _Java_com_sun_java_util_jar_pack_NativeUnpack_initIDs@8 10002bfa f   jni.obj
 0001:00001cd4       _Java_com_sun_java_util_jar_pack_NativeUnpack_setOption@16 10002cd4 f   jni.obj
 0001:00001d5e       _Java_com_sun_java_util_jar_pack_NativeUnpack_start@20 10002d5e f   jni.obj
 0001:00001e19       ?abort@unpacker@@QAEXPBD@Z 10002e19 f   unpack.obj
 0001:00001e60       ?add_size@@YAIIIH@Z        10002e60 f i unpack.obj
 0001:00001e97       ?alloc_heap@unpacker@@QAEPAXI_N0@Z 10002e97 f   unpack.obj
 0001:00001f34       ?buildBands@attr_definitions@unpacker@@QAEPAPAUband@@PAUlayout_definition@2@@Z 10002f34 f   unpack.obj
 0001:00002053       ?checkLegacy@unpacker@@QAEXPBD@Z 10003053 f   unpack.obj
 0001:000020a9       ?check_options@unpacker@@QAEXXZ 100030a9 f   unpack.obj
 0001:000020de       ?close_output@unpacker@@QAEPAUfillbytes@@PAU2@@Z 100030de f   unpack.obj
 0001:000021c5       ?computeOutputIndexes@cpool@@QAEXXZ 100031c5 f   unpack.obj
 0001:00002215       ?defineLayout@attr_definitions@unpacker@@QAEPAUlayout_definition@2@HPAUentry@@PBD@Z 10003215 f i unpack.obj
 0001:00002241       ?defineLayout@attr_definitions@unpacker@@QAEPAUlayout_definition@2@HPBD0@Z 10003241 f   unpack.obj
 0001:00002328       ?ensureClass@cpool@@QAEPAUentry@@AAUbytes@@@Z 10003328 f   unpack.obj
 0001:000023bf       ?ensureUtf8@cpool@@QAEPAUentry@@AAUbytes@@@Z 100033bf f   unpack.obj
 0001:00002439       ?ensure_input@unpacker@@QAE_N_J@Z 10003439 f   unpack.obj
 0001:00002585       ?ensure_put_space@unpacker@@QAEXI@Z 10003585 f   unpack.obj
 0001:000025cd       ?expandSignatures@cpool@@QAEXXZ 100035cd f   unpack.obj
 0001:00002783       ?free@attr_definitions@unpacker@@QAEXXZ 10003783 f i unpack.obj
 0001:000027f6       ?free@jar@@QAEXXZ          100037f6 f i unpack.obj
 0001:00002821       ?free@unpacker@@QAEXXZ     10003821 f   unpack.obj
 0001:000029c2       ?free_temps@unpacker@@QAEXXZ 100039c2 f i unpack.obj
 0001:000029d5       ?get@cpindex@@QAEPAUentry@@I@Z 100039d5 f   unpack.obj
 0001:000029fa       ?getCount@attr_definitions@unpacker@@QAEAAHI@Z 100039fa f i unpack.obj
 0001:00002a1a       ?getFieldIndex@cpool@@QAEPAUcpindex@@PAUentry@@@Z 10003a1a f i unpack.obj
 0001:00002a45       ?getFirstChildIC@cpool@@QAEPAUinner_class@@PAUentry@@@Z 10003a45 f   unpack.obj
 0001:00002a67       ?getIC@cpool@@QAEPAUinner_class@@PAUentry@@@Z 10003a67 f   unpack.obj
 0001:00002a89       ?getKQIndex@cpool@@QAEPAUcpindex@@XZ 10003a89 f   unpack.obj
 0001:00002b1a       ?getLayout@attr_definitions@unpacker@@QAEPAUlayout_definition@2@I@Z 10003b1a f i unpack.obj
 0001:00002b35       ?getMethodIndex@cpool@@QAEPAUcpindex@@PAUentry@@@Z 10003b35 f i unpack.obj
 0001:00002b67       ?get_abort_message@unpacker@@QAEPBDXZ 10003b67 f   unpack.obj
 0001:00002b6b       ?get_code_header@unpacker@@QAEXAAH000@Z 10003b6b f   unpack.obj
 0001:00002c00       ?get_next_file@unpacker@@QAEPAUfile@1@XZ 10003c00 f   unpack.obj
 0001:00002f53       ?get_option@unpacker@@QAEPBDPBD@Z 10003f53 f   unpack.obj
 0001:00003007       ?hashTabRef@cpool@@QAEAAPAUentry@@CAAUbytes@@@Z 10004007 f   unpack.obj
 0001:000030bb       ?init@band@@QAEXPAUunpacker@@HH@Z 100040bb f i unpack.obj
 0001:000030e3       ?init@cpool@@QAEXPAUunpacker@@QAH@Z 100040e3 f   unpack.obj
 0001:00003296       ?init@unpacker@@QAEXP6A_JPAU1@PAX_J2@Z@Z 10004296 f   unpack.obj
 0001:00003309       ?initGroupIndexes@cpool@@QAEXXZ 10004309 f   unpack.obj
 0001:000033d1       ?initLoadableValues@cpool@@QAEHPAPAUentry@@@Z 100043d1 f   unpack.obj
 0001:0000342b       ?initMemberIndexes@cpool@@QAEXXZ 1000442b f   unpack.obj
 0001:000036b6       ?isIndex@attr_definitions@unpacker@@QAE_NI@Z 100046b6 f i unpack.obj
 0001:000036ed       ?isLoadableValue@@YA_NH@Z  100046ed f   unpack.obj
 0001:00003709       ?isPredefined@attr_definitions@unpacker@@QAE_NI@Z 10004709 f i unpack.obj
 0001:00003734       ?isRedefined@attr_definitions@unpacker@@QAE_NI@Z 10004734 f i unpack.obj
 0001:000037cb       ?parseIntLayout@attr_definitions@unpacker@@QAEPBDPBDAAPAUband@@C_N@Z 100047cb f   unpack.obj
 0001:0000389d       ?parseLayout@attr_definitions@unpacker@@QAEPBDPBDAAPAPAUband@@H@Z 1000489d f   unpack.obj
 0001:00003f61       ?parseNumeral@attr_definitions@unpacker@@QAEPBDPBDAAH@Z 10004f61 f   unpack.obj
 0001:00003fff       ?popBody@attr_definitions@unpacker@@QAEPAPAUband@@H@Z 10004fff f   unpack.obj
 0001:00004090       ?predefCount@attr_definitions@unpacker@@QAEHI@Z 10005090 f   unpack.obj
 0001:000040af       ?put_bytes@unpacker@@QAEXAAUbytes@@@Z 100050af f i unpack.obj
 0001:000040c8       ?put_label@unpacker@@QAEXHH@Z 100050c8 f   unpack.obj
 0001:00004116       ?put_space@unpacker@@QAEPACI@Z 10005116 f   unpack.obj
 0001:0000414b       ?put_stackmap_type@unpacker@@QAEXXZ 1000514b f   unpack.obj
 0001:000041ba       ?putlayout@unpacker@@QAEXPAPAUband@@@Z 100051ba f   unpack.obj
 0001:000043b8       ?putref@unpacker@@QAEXPAUentry@@@Z 100053b8 f   unpack.obj
 0001:000043dc       ?putref_index@unpacker@@QAEHPAUentry@@H@Z 100053dc f   unpack.obj
 0001:00004463       ?putu1ref@unpacker@@QAEXPAUentry@@@Z 10005463 f   unpack.obj
 0001:00004484       ?putu2@unpacker@@QAEXH@Z   10005484 f   unpack.obj
 0001:0000449a       ?putu2_at@unpacker@@SAXPACH@Z 1000549a f   unpack.obj
 0001:000044c3       ?putu4@unpacker@@QAEXH@Z   100054c3 f   unpack.obj
 0001:000044d9       ?putu4_at@unpacker@@SAXPACH@Z 100054d9 f   unpack.obj
 0001:000044fc       ?putu8@unpacker@@QAEX_J@Z  100054fc f   unpack.obj
 0001:00004517       ?putu8_at@unpacker@@SAXPAC_J@Z 10005517 f   unpack.obj
 0001:00004538       ?readBandData@attr_definitions@unpacker@@QAEXH@Z 10005538 f   unpack.obj
 0001:000045b7       ?readBandData@attr_definitions@unpacker@@QAEXPAPAUband@@I@Z 100055b7 f   unpack.obj
 0001:000046f4       ?read_Utf8_values@unpacker@@QAEXPAUentry@@H@Z 100056f4 f i unpack.obj
 0001:00004c95       ?read_attr_defs@unpacker@@QAEXXZ 10005c95 f   unpack.obj
 0001:00004f4a       ?read_attrs@unpacker@@QAEXHH@Z 10005f4a f   unpack.obj
 0001:000058c2       ?read_bands@unpacker@@QAEXXZ 100068c2 f   unpack.obj
 0001:0000592e       ?read_bcs@unpacker@@QAEXXZ 1000692e f i unpack.obj
 0001:00005c67       ?read_bootstrap_methods@unpacker@@QAEXPAUentry@@H@Z 10006c67 f   unpack.obj
 0001:00005da9       ?read_classes@unpacker@@QAEXXZ 10006da9 f   unpack.obj
 0001:00005ed7       ?read_code_headers@unpacker@@QAEXXZ 10006ed7 f   unpack.obj
 0001:00006041       ?read_cp@unpacker@@QAEXXZ  10007041 f   unpack.obj
 0001:00006295       ?read_double_refs@unpacker@@QAEXAAUband@@CCPAUentry@@H@Z 10007295 f   unpack.obj
 0001:0000634d       ?read_double_words@unpacker@@QAEXAAUband@@PAUentry@@H@Z 1000734d f   unpack.obj
 0001:00006396       ?read_file_header@unpacker@@QAEXXZ 10007396 f   unpack.obj
 0001:00006b1b       ?read_files@unpacker@@QAEXXZ 10007b1b f   unpack.obj
 0001:00006c0c       ?read_ics@unpacker@@QAEXXZ 10007c0c f   unpack.obj
 0001:00006fb2       ?read_method_handle@unpacker@@QAEXPAUentry@@H@Z 10007fb2 f   unpack.obj
 0001:0000706b       ?read_method_type@unpacker@@QAEXPAUentry@@H@Z 1000806b f   unpack.obj
 0001:00007103       ?read_signature_values@unpacker@@QAEXPAUentry@@H@Z 10008103 f   unpack.obj
 0001:00007269       ?read_single_refs@unpacker@@QAEXAAUband@@CPAUentry@@H@Z 10008269 f   unpack.obj
 0001:0000732f       ?read_single_words@unpacker@@QAEXAAUband@@PAUentry@@H@Z 1000832f f i unpack.obj
 0001:00007365       ?redirect_stdio@unpacker@@QAEXXZ 10008365 f   unpack.obj
 0001:00007407       ?ref_band_for_op@unpacker@@QAEPAUband@@H@Z 10008407 f   unpack.obj
 0001:00007543       ?ref_band_for_self_op@unpacker@@QAEPAUband@@HAA_NAAH@Z 10008543 f   unpack.obj
 0001:000075ca       ?requestOutputIndex@entry@@QAEXAAUcpool@@H@Z 100085ca f   unpack.obj
 0001:0000763b       ?resetOutputIndexes@cpool@@QAEXXZ 1000863b f   unpack.obj
 0001:00007690       ?reset_cur_classfile@unpacker@@QAEXXZ 10008690 f   unpack.obj
 0001:000076d8       ?saveIntStr@unpacker@@QAEPBDH@Z 100086d8 f i unpack.obj
 0001:0000771c       ?saveStr@unpacker@@QAEPBDPBD@Z 1000871c f i unpack.obj
 0001:00007746       ?saveTo@unpacker@@QAEXAAUbytes@@PACI@Z 10008746 f   unpack.obj
 0001:0000779f       ?set_option@unpacker@@QAE_NPBD0@Z 1000879f f   unpack.obj
 0001:00007910       ?set_output@unpacker@@QAEXPAUfillbytes@@@Z 10008910 f i unpack.obj
 0001:00007947       ?start@unpacker@@QAEXPAXI@Z 10008947 f   unpack.obj
 0001:000079d2       ?to_bci@unpacker@@QAEII@Z  100089d2 f   unpack.obj
 0001:00007a23       ?typeSize@entry@@QAEHXZ    10008a23 f   unpack.obj
 0001:00007a99       ?utf8String@entry@@QAEPBDXZ 10008a99 f i unpack.obj
 0001:00007abd       ?write_attrs@unpacker@@QAEHH_K@Z 10008abd f   unpack.obj
 0001:00008528       ?write_bc_ops@unpacker@@QAEXXZ 10009528 f i unpack.obj
 0001:00008ce8       ?write_bsms@unpacker@@QAEHHH@Z 10009ce8 f   unpack.obj
 0001:00008df2       ?write_classfile_head@unpacker@@QAEXXZ 10009df2 f   unpack.obj
 0001:00008f4c       ?write_classfile_tail@unpacker@@QAEXXZ 10009f4c f   unpack.obj
 0001:0000917e       ?write_code@unpacker@@QAEXXZ 1000a17e f i unpack.obj
 0001:00009355       ?write_ics@unpacker@@QAEHHH@Z 1000a355 f   unpack.obj
 0001:000096a0       ?write_members@unpacker@@QAEXHH@Z 1000a6a0 f   unpack.obj
 0001:000097d3       _outputEntry_cmp           1000a7d3 f   unpack.obj
 0001:00009842       _raw_address_cmp           1000a842 f   unpack.obj
 0001:0000985d       ?must_malloc@@YAPAXI@Z     1000a85d f   utils.obj
 0001:000098a0       ?unpack_abort@@YAXPBDPAUunpacker@@@Z 1000a8a0 f   utils.obj
 0001:000098ea       ?unpack_aborting@@YA_NPAUunpacker@@@Z 1000a8ea f   utils.obj
 0001:00009923       ?free@gunzip@@QAEXXZ       1000a923 f   zip.obj
 0001:00009924       ?init@jar@@QAEXPAUunpacker@@@Z 1000a924 f   zip.obj
 0001:00009942       _JNU_ThrowIOException@8    1000a942 f   java:java.dll
 0001:00009948       @__security_check_cookie@4 1000a948 f   MSVCRT:secchk.obj
 0001:00009958       _memcmp                    1000a958 f   MSVCRT:MSVCR120.dll
 0001:0000995e       _memcpy                    1000a95e f   MSVCRT:MSVCR120.dll
 0001:00009964       _memset                    1000a964 f   MSVCRT:MSVCR120.dll
 0001:00009970       __allmul                   1000a970 f   MSVCRT:llmul.obj
 0001:000099a4       ??2@YAPAXI@Z               1000a9a4 f   MSVCRT:MSVCR120.dll
 0001:000099aa       ??3@YAXPAX@Z               1000a9aa f   MSVCRT:MSVCR120.dll
 0001:000099b0       __aullshr                  1000a9b0 f   MSVCRT:ullshr.obj
 0001:000099d0       _strcat                    1000a9d0 f   MSVCRT:MSVCR120.dll
 0001:000099d6       _strcmp                    1000a9d6 f   MSVCRT:MSVCR120.dll
 0001:000099dc       _strlen                    1000a9dc f   MSVCRT:MSVCR120.dll
 0001:00009a2e       __CRT_INIT@12              1000aa2e f   MSVCRT:crtdll.obj
 0001:00009c25       __DllMainCRTStartup@12     1000ac25 f   MSVCRT:crtdll.obj
 0001:00009d7b       ___raise_securityfailure   1000ad7b f   MSVCRT:gs_report.obj
 0001:00009db8       ___report_gsfailure        1000adb8 f   MSVCRT:gs_report.obj
 0001:00009eb4       ___CppXcptFilter           1000aeb4 f   MSVCRT:MSVCR120.dll
 0001:00009eba       __amsg_exit                1000aeba f   MSVCRT:MSVCR120.dll
 0001:00009ec0       __FindPESection            1000aec0 f   MSVCRT:pesect.obj
 0001:00009f10       __IsNonwritableInCurrentImage 1000af10 f   MSVCRT:pesect.obj
 0001:00009fd0       __ValidateImageBase        1000afd0 f   MSVCRT:pesect.obj
 0001:0000a001       ___atonexitinit            1000b001 f   MSVCRT:atonexit.obj
 0001:0000a03d       __onexit                   1000b03d f   MSVCRT:atonexit.obj
 0001:0000a0e6       _atexit                    1000b0e6 f   MSVCRT:atonexit.obj
 0001:0000a0fb       ___security_init_cookie    1000b0fb f   MSVCRT:gs_support.obj
 0001:0000a197       _DllMain@12                1000b197 f   MSVCRT:dllmain.obj
 0001:0000a1b9       __RTC_Initialize           1000b1b9 f   MSVCRT:initsect.obj
 0001:0000a1d9       __RTC_Terminate            1000b1d9 f   MSVCRT:initsect.obj
 0001:0000a1fa       __initterm                 1000b1fa f   MSVCRT:MSVCR120.dll
 0001:0000a200       __initterm_e               1000b200 f   MSVCRT:MSVCR120.dll
 0001:0000a206       ___clean_type_info_names   1000b206 f   MSVCRT:tncleanup.obj
 0001:0000a220       __SEH_prolog4              1000b220 f   MSVCRT:sehprolg4.obj
 0001:0000a265       __SEH_epilog4              1000b265 f   MSVCRT:sehprolg4.obj
 0001:0000a279       __except_handler4          1000b279 f   MSVCRT:chandler4gs.obj
 0001:0000a29c       __crt_debugger_hook        1000b29c f   MSVCRT:MSVCR120.dll
 0001:0000a2a2       ___crtUnhandledException   1000b2a2 f   MSVCRT:MSVCR120.dll
 0001:0000a2a8       ___crtTerminateProcess     1000b2a8 f   MSVCRT:MSVCR120.dll
 0001:0000a2ae       __lock                     1000b2ae f   MSVCRT:MSVCR120.dll
 0001:0000a2b4       __unlock                   1000b2b4 f   MSVCRT:MSVCR120.dll
 0001:0000a2ba       ___dllonexit               1000b2ba f   MSVCRT:MSVCR120.dll
 0001:0000a2c0       ___clean_type_info_names_internal 1000b2c0 f   MSVCRT:MSVCR120.dll
 0001:0000a2c6       __except_handler4_common   1000b2c6 f   MSVCRT:MSVCR120.dll
 0001:0000a2cc       _IsProcessorFeaturePresent@4 1000b2cc f   kernel32:KERNEL32.dll
 0002:00000000       __imp__GetCurrentThreadId@0 1000c000     kernel32:KERNEL32.dll
 0002:00000004       __imp__DisableThreadLibraryCalls@4 1000c004     kernel32:KERNEL32.dll
 0002:00000008       __imp__GetSystemTimeAsFileTime@4 1000c008     kernel32:KERNEL32.dll
 0002:0000000c       __imp__QueryPerformanceCounter@4 1000c00c     kernel32:KERNEL32.dll
 0002:00000010       __imp__IsProcessorFeaturePresent@4 1000c010     kernel32:KERNEL32.dll
 0002:00000014       __imp__IsDebuggerPresent@0 1000c014     kernel32:KERNEL32.dll
 0002:00000018       __imp__DecodePointer@4     1000c018     kernel32:KERNEL32.dll
 0002:0000001c       __imp__EncodePointer@4     1000c01c     kernel32:KERNEL32.dll
 0002:00000020       __imp__GetCurrentProcessId@0 1000c020     kernel32:KERNEL32.dll
 0002:00000024       \177KERNEL32_NULL_THUNK_DATA 1000c024     kernel32:KERNEL32.dll
 0002:00000028       __imp_??2@YAPAXI@Z         1000c028     MSVCRT:MSVCR120.dll
 0002:0000002c       __imp_??3@YAXPAX@Z         1000c02c     MSVCRT:MSVCR120.dll
 0002:00000030       __imp____iob_func          1000c030     MSVCRT:MSVCR120.dll
 0002:00000034       __imp__fopen               1000c034     MSVCRT:MSVCR120.dll
 0002:00000038       __imp__fprintf             1000c038     MSVCRT:MSVCR120.dll
 0002:0000003c       __imp___snprintf           1000c03c     MSVCRT:MSVCR120.dll
 0002:00000040       __imp__sprintf             1000c040     MSVCRT:MSVCR120.dll
 0002:00000044       __imp__strcat              1000c044     MSVCRT:MSVCR120.dll
 0002:00000048       __imp__strcmp              1000c048     MSVCRT:MSVCR120.dll
 0002:0000004c       __imp__strlen              1000c04c     MSVCRT:MSVCR120.dll
 0002:00000050       __imp__strchr              1000c050     MSVCRT:MSVCR120.dll
 0002:00000054       __imp__strncat             1000c054     MSVCRT:MSVCR120.dll
 0002:00000058       __imp__atoi                1000c058     MSVCRT:MSVCR120.dll
 0002:0000005c       __imp__qsort               1000c05c     MSVCRT:MSVCR120.dll
 0002:00000060       __imp___time64             1000c060     MSVCRT:MSVCR120.dll
 0002:00000064       __imp__abort               1000c064     MSVCRT:MSVCR120.dll
 0002:00000068       __imp__memset              1000c068     MSVCRT:MSVCR120.dll
 0002:0000006c       __imp____CppXcptFilter     1000c06c     MSVCRT:MSVCR120.dll
 0002:00000070       __imp___amsg_exit          1000c070     MSVCRT:MSVCR120.dll
 0002:00000074       __imp___malloc_crt         1000c074     MSVCRT:MSVCR120.dll
 0002:00000078       __imp___initterm           1000c078     MSVCRT:MSVCR120.dll
 0002:0000007c       __imp___initterm_e         1000c07c     MSVCRT:MSVCR120.dll
 0002:00000080       __imp___crt_debugger_hook  1000c080     MSVCRT:MSVCR120.dll
 0002:00000084       __imp____crtUnhandledException 1000c084     MSVCRT:MSVCR120.dll
 0002:00000088       __imp____crtTerminateProcess 1000c088     MSVCRT:MSVCR120.dll
 0002:0000008c       __imp___lock               1000c08c     MSVCRT:MSVCR120.dll
 0002:00000090       __imp___unlock             1000c090     MSVCRT:MSVCR120.dll
 0002:00000094       __imp___calloc_crt         1000c094     MSVCRT:MSVCR120.dll
 0002:00000098       __imp____dllonexit         1000c098     MSVCRT:MSVCR120.dll
 0002:0000009c       __imp___onexit             1000c09c     MSVCRT:MSVCR120.dll
 0002:000000a0       __imp____clean_type_info_names_internal 1000c0a0     MSVCRT:MSVCR120.dll
 0002:000000a4       __imp___except_handler4_common 1000c0a4     MSVCRT:MSVCR120.dll
 0002:000000a8       __imp__memcpy              1000c0a8     MSVCRT:MSVCR120.dll
 0002:000000ac       __imp__memcmp              1000c0ac     MSVCRT:MSVCR120.dll
 0002:000000b0       __imp__realloc             1000c0b0     MSVCRT:MSVCR120.dll
 0002:000000b4       __imp__free                1000c0b4     MSVCRT:MSVCR120.dll
 0002:000000b8       __imp__malloc              1000c0b8     MSVCRT:MSVCR120.dll
 0002:000000bc       \177MSVCR120_NULL_THUNK_DATA 1000c0bc     MSVCRT:MSVCR120.dll
 0002:000000c0       __imp__JNU_ThrowIOException@8 1000c0c0     java:java.dll
 0002:000000c4       \177java_NULL_THUNK_DATA   1000c0c4     java:java.dll
 0002:000000c8       __imp__JNI_GetCreatedJavaVMs@12 1000c0c8     jvm:jvm.dll
 0002:000000cc       \177jvm_NULL_THUNK_DATA    1000c0cc     jvm:jvm.dll
 0002:000000d0       ___xc_a                    1000c0d0     MSVCRT:cinitexe.obj
 0002:000000d4       ___xc_z                    1000c0d4     MSVCRT:cinitexe.obj
 0002:000000d8       ___xi_a                    1000c0d8     MSVCRT:cinitexe.obj
 0002:000000e4       ___xi_z                    1000c0e4     MSVCRT:cinitexe.obj
 0002:00000ae8       ??_C@_0P@NFDCFGCL@cp_Utf8_prefix?$AA@ 1000cae8     bands.obj
 0002:00000af8       ??_C@_0P@LOHPAGNO@cp_Utf8_suffix?$AA@ 1000caf8     bands.obj
 0002:00000b08       ??_C@_0O@IHLLKPBK@cp_Utf8_chars?$AA@ 1000cb08     bands.obj
 0002:00000b18       ??_C@_0BD@EOIEJGOP@cp_Utf8_big_suffix?$AA@ 1000cb18     bands.obj
 0002:00000b2c       ??_C@_0BC@HDLINKIK@cp_Utf8_big_chars?$AA@ 1000cb2c     bands.obj
 0002:00000b40       ??_C@_06IGKKGOEN@cp_Int?$AA@ 1000cb40     bands.obj
 0002:00000b48       ??_C@_08OBBFNHHD@cp_Float?$AA@ 1000cb48     bands.obj
 0002:00000b54       ??_C@_0L@HNFJMOEO@cp_Long_hi?$AA@ 1000cb54     bands.obj
 0002:00000b60       ??_C@_0L@CMAKMBBE@cp_Long_lo?$AA@ 1000cb60     bands.obj
 0002:00000b6c       ??_C@_0N@CPNNOOPC@cp_Double_hi?$AA@ 1000cb6c     bands.obj
 0002:00000b7c       ??_C@_0N@HOIOOBKI@cp_Double_lo?$AA@ 1000cb7c     bands.obj
 0002:00000b8c       ??_C@_09HFEHKGNE@cp_String?$AA@ 1000cb8c     bands.obj
 0002:00000b98       ??_C@_08BOENACK@cp_Class?$AA@ 1000cb98     bands.obj
 0002:00000ba4       ??_C@_0BC@FENMLAPO@cp_Signature_form?$AA@ 1000cba4     bands.obj
 0002:00000bb8       ??_C@_0BF@MEOEAPGK@cp_Signature_classes?$AA@ 1000cbb8     bands.obj
 0002:00000bd0       ??_C@_0O@JHMEINNJ@cp_Descr_name?$AA@ 1000cbd0     bands.obj
 0002:00000be0       ??_C@_0O@DMMHENKJ@cp_Descr_type?$AA@ 1000cbe0     bands.obj
 0002:00000bf0       ??_C@_0P@EEAFDJFH@cp_Field_class?$AA@ 1000cbf0     bands.obj
 0002:00000c00       ??_C@_0O@FCFAPCDP@cp_Field_desc?$AA@ 1000cc00     bands.obj
 0002:00000c10       ??_C@_0BA@LDOOFFKI@cp_Method_class?$AA@ 1000cc10     bands.obj
 0002:00000c20       ??_C@_0P@NLGLFAKL@cp_Method_desc?$AA@ 1000cc20     bands.obj
 0002:00000c30       ??_C@_0BB@IIGJKIIK@cp_Imethod_class?$AA@ 1000cc30     bands.obj
 0002:00000c44       ??_C@_0BA@DCLGLKIL@cp_Imethod_desc?$AA@ 1000cc44     bands.obj
 0002:00000c54       ??_C@_0BI@NIJEEAN@cp_MethodHandle_refkind?$AA@ 1000cc54     bands.obj
 0002:00000c6c       ??_C@_0BH@NKNCKAEO@cp_MethodHandle_member?$AA@ 1000cc6c     bands.obj
 0002:00000c84       ??_C@_0O@NHPECHNH@cp_MethodType?$AA@ 1000cc84     bands.obj
 0002:00000c94       ??_C@_0BH@NPCIPIPL@cp_BootstrapMethod_ref?$AA@ 1000cc94     bands.obj
 0002:00000cac       ??_C@_0BN@DJLEBMBH@cp_BootstrapMethod_arg_count?$AA@ 1000ccac     bands.obj
 0002:00000ccc       ??_C@_0BH@JNPGIEDO@cp_BootstrapMethod_arg?$AA@ 1000cccc     bands.obj
 0002:00000ce4       ??_C@_0BG@CIPOMBAC@cp_InvokeDynamic_spec?$AA@ 1000cce4     bands.obj
 0002:00000cfc       ??_C@_0BG@IFFCPCPP@cp_InvokeDynamic_desc?$AA@ 1000ccfc     bands.obj
 0002:00000d14       ??_C@_0BI@KJJNKCHD@attr_definition_headers?$AA@ 1000cd14     bands.obj
 0002:00000d2c       ??_C@_0BF@EEAHHHEA@attr_definition_name?$AA@ 1000cd2c     bands.obj
 0002:00000d44       ??_C@_0BH@EKDDDJNL@attr_definition_layout?$AA@ 1000cd44     bands.obj
 0002:00000d5c       ??_C@_0O@HJMNFDHJ@ic_this_class?$AA@ 1000cd5c     bands.obj
 0002:00000d6c       ??_C@_08CKLAPDFF@ic_flags?$AA@ 1000cd6c     bands.obj
 0002:00000d78       ??_C@_0P@MGLGIOLC@ic_outer_class?$AA@ 1000cd78     bands.obj
 0002:00000d88       ??_C@_07OPOCOJIH@ic_name?$AA@ 1000cd88     bands.obj
 0002:00000d90       ??_C@_0L@GONOGKKN@class_this?$AA@ 1000cd90     bands.obj
 0002:00000d9c       ??_C@_0M@FMPLOBH@class_super?$AA@ 1000cd9c     bands.obj
 0002:00000da8       ??_C@_0BG@ELABOHHB@class_interface_count?$AA@ 1000cda8     bands.obj
 0002:00000dc0       ??_C@_0BA@GDKGLIFF@class_interface?$AA@ 1000cdc0     bands.obj
 0002:00000dd0       ??_C@_0BC@GLACLOBG@class_field_count?$AA@ 1000cdd0     bands.obj
 0002:00000de4       ??_C@_0BD@MFLGOFPO@class_method_count?$AA@ 1000cde4     bands.obj
 0002:00000df8       ??_C@_0M@IINMAGFA@field_descr?$AA@ 1000cdf8     bands.obj
 0002:00000e04       ??_C@_0P@LDBPJHCP@field_flags_hi?$AA@ 1000ce04     bands.obj
 0002:00000e14       ??_C@_0P@OCEMJIHF@field_flags_lo?$AA@ 1000ce14     bands.obj
 0002:00000e24       ??_C@_0BB@GJGJJLKK@field_attr_count?$AA@ 1000ce24     bands.obj
 0002:00000e38       ??_C@_0BD@LLAABMND@field_attr_indexes?$AA@ 1000ce38     bands.obj
 0002:00000e4c       ??_C@_0BB@LHINHPHH@field_attr_calls?$AA@ 1000ce4c     bands.obj
 0002:00000e60       ??_C@_0BH@NKCAAIDC@field_ConstantValue_KQ?$AA@ 1000ce60     bands.obj
 0002:00000e78       ??_C@_0BD@HMEKDNDB@field_Signature_RS?$AA@ 1000ce78     bands.obj
 0002:00000e8c       ??_C@_0BF@KACJMLOM@field_metadata_bands?$AA@ 1000ce8c     bands.obj
 0002:00000ea4       ??_C@_0BB@NIMLDFOB@field_attr_bands?$AA@ 1000cea4     bands.obj
 0002:00000eb8       ??_C@_0N@GLCNNANE@method_descr?$AA@ 1000ceb8     bands.obj
 0002:00000ec8       ??_C@_0BA@EIPLIEID@method_flags_hi?$AA@ 1000cec8     bands.obj
 0002:00000ed8       ??_C@_0BA@BJKIILNJ@method_flags_lo?$AA@ 1000ced8     bands.obj
 0002:00000ee8       ??_C@_0BC@OPGFNCHF@method_attr_count?$AA@ 1000cee8     bands.obj
 0002:00000efc       ??_C@_0BE@LCKALKDL@method_attr_indexes?$AA@ 1000cefc     bands.obj
 0002:00000f10       ??_C@_0BC@DBIBDGKI@method_attr_calls?$AA@ 1000cf10     bands.obj
 0002:00000f24       ??_C@_0BE@HAIBKECN@method_Exceptions_N?$AA@ 1000cf24     bands.obj
 0002:00000f38       ??_C@_0BF@ILMHJLAD@method_Exceptions_RC?$AA@ 1000cf38     bands.obj
 0002:00000f50       ??_C@_0BE@HFOKJLNJ@method_Signature_RS?$AA@ 1000cf50     bands.obj
 0002:00000f64       ??_C@_0BG@JDLLNHF@method_metadata_bands?$AA@ 1000cf64     bands.obj
 0002:00000f7c       ??_C@_0BL@MNBFAABE@method_MethodParameters_NB?$AA@ 1000cf7c     bands.obj
 0002:00000f98       ??_C@_0CB@POGNKHAK@method_MethodParameters_name_RUN@ 1000cf98     bands.obj
 0002:00000fbc       ??_C@_0CA@HDKLJONB@method_MethodParameters_flag_FH?$AA@ 1000cfbc     bands.obj
 0002:00000fdc       ??_C@_0BC@FOMHHMDO@method_attr_bands?$AA@ 1000cfdc     bands.obj
 0002:00000ff0       ??_C@_0P@DNMDIOJK@class_flags_hi?$AA@ 1000cff0     bands.obj
 0002:00001000       ??_C@_0P@GMJAIBMA@class_flags_lo?$AA@ 1000d000     bands.obj
 0002:00001010       ??_C@_0BB@JELAOHEL@class_attr_count?$AA@ 1000d010     bands.obj
 0002:00001024       ??_C@_0BD@KFNGBOLA@class_attr_indexes?$AA@ 1000d024     bands.obj
 0002:00001038       ??_C@_0BB@EKFEADJG@class_attr_calls?$AA@ 1000d038     bands.obj
 0002:0000104c       ??_C@_0BF@MJNFEGEM@class_SourceFile_RUN?$AA@ 1000d04c     bands.obj
 0002:00001064       ??_C@_0BJ@CCGEELON@class_EnclosingMethod_RC?$AA@ 1000d064     bands.obj
 0002:00001080       ??_C@_0BK@LFCMIOIA@class_EnclosingMethod_RDN?$AA@ 1000d080     bands.obj
 0002:0000109c       ??_C@_0BD@GCJMDPFC@class_Signature_RS?$AA@ 1000d09c     bands.obj
 0002:000010b0       ??_C@_0BF@PHIMHC@class_metadata_bands?$AA@ 1000d0b0     bands.obj
 0002:000010c8       ??_C@_0BF@PGJMDHG@class_InnerClasses_N?$AA@ 1000d0c8     bands.obj
 0002:000010e0       ??_C@_0BG@HHABPLBI@class_InnerClasses_RC?$AA@ 1000d0e0     bands.obj
 0002:000010f8       ??_C@_0BF@MHLAEJHO@class_InnerClasses_F?$AA@ 1000d0f8     bands.obj
 0002:00001110       ??_C@_0BN@FANFKEPF@class_InnerClasses_outer_RCN?$AA@ 1000d110     bands.obj
 0002:00001130       ??_C@_0BM@CHKHAMMI@class_InnerClasses_name_RUN?$AA@ 1000d130     bands.obj
 0002:0000114c       ??_C@_0CA@LBNJCLO@class_ClassFile_version_minor_H?$AA@ 1000d14c     bands.obj
 0002:0000116c       ??_C@_0CA@KDGDJOMP@class_ClassFile_version_major_H?$AA@ 1000d16c     bands.obj
 0002:0000118c       ??_C@_0BB@CFBCEJAA@class_attr_bands?$AA@ 1000d18c     bands.obj
 0002:000011a0       ??_C@_0N@EJFJBMLJ@code_headers?$AA@ 1000d1a0     bands.obj
 0002:000011b0       ??_C@_0P@DPBEANCA@code_max_stack?$AA@ 1000d1b0     bands.obj
 0002:000011c0       ??_C@_0BD@OBGMDNFJ@code_max_na_locals?$AA@ 1000d1c0     bands.obj
 0002:000011d4       ??_C@_0BD@OMMDBBC@code_handler_count?$AA@ 1000d1d4     bands.obj
 0002:000011e8       ??_C@_0BF@NAEEIJON@code_handler_start_P?$AA@ 1000d1e8     bands.obj
 0002:00001200       ??_C@_0BE@GIJMHOG@code_handler_end_PO?$AA@ 1000d200     bands.obj
 0002:00001214       ??_C@_0BG@GJGNOMGM@code_handler_catch_PO?$AA@ 1000d214     bands.obj
 0002:0000122c       ??_C@_0BH@ECFPKFHF@code_handler_class_RCN?$AA@ 1000d22c     bands.obj
 0002:00001244       ??_C@_0O@PKFJGJJN@code_flags_hi?$AA@ 1000d244     bands.obj
 0002:00001254       ??_C@_0O@KLAKGGMH@code_flags_lo?$AA@ 1000d254     bands.obj
 0002:00001264       ??_C@_0BA@OFJPMBMN@code_attr_count?$AA@ 1000d264     bands.obj
 0002:00001274       ??_C@_0BC@BKACNFKP@code_attr_indexes?$AA@ 1000d274     bands.obj
 0002:00001288       ??_C@_0BA@DLHLCFBA@code_attr_calls?$AA@ 1000d288     bands.obj
 0002:00001298       ??_C@_0BF@FNGGAIBD@code_StackMapTable_N?$AA@ 1000d298     bands.obj
 0002:000012b0       ??_C@_0BL@IJLKAPMG@code_StackMapTable_frame_T?$AA@ 1000d2b0     bands.obj
 0002:000012cc       ??_C@_0BL@FLGOBHFL@code_StackMapTable_local_N?$AA@ 1000d2cc     bands.obj
 0002:000012e8       ??_C@_0BL@DBPDDGDK@code_StackMapTable_stack_N?$AA@ 1000d2e8     bands.obj
 0002:00001304       ??_C@_0BK@HMGLLHPP@code_StackMapTable_offset?$AA@ 1000d304     bands.obj
 0002:00001320       ??_C@_0BF@ONELPCMI@code_StackMapTable_T?$AA@ 1000d320     bands.obj
 0002:00001338       ??_C@_0BG@EKILGBAE@code_StackMapTable_RC?$AA@ 1000d338     bands.obj
 0002:00001350       ??_C@_0BF@IJCHDHMM@code_StackMapTable_P?$AA@ 1000d350     bands.obj
 0002:00001368       ??_C@_0BH@EMJOIADC@code_LineNumberTable_N?$AA@ 1000d368     bands.obj
 0002:00001380       ??_C@_0BL@BODGMFAF@code_LineNumberTable_bci_P?$AA@ 1000d380     bands.obj
 0002:0000139c       ??_C@_0BK@KMDHKKJP@code_LineNumberTable_line?$AA@ 1000d39c     bands.obj
 0002:000013b8       ??_C@_0BK@EAEINMEG@code_LocalVariableTable_N?$AA@ 1000d3b8     bands.obj
 0002:000013d4       ??_C@_0BO@EBBJALKI@code_LocalVariableTable_bci_P?$AA@ 1000d3d4     bands.obj
 0002:000013f4       ??_C@_0BP@JIPNBFGM@code_LocalVariableTable_span_O?$AA@ 1000d3f4     bands.obj
 0002:00001414       ??_C@_0CA@LBKLALLO@code_LocalVariableTable_name_RU?$AA@ 1000d414     bands.obj
 0002:00001434       ??_C@_0CA@OBPDECDH@code_LocalVariableTable_type_RS?$AA@ 1000d434     bands.obj
 0002:00001454       ??_C@_0BN@BAELGOA@code_LocalVariableTable_slot?$AA@ 1000d454     bands.obj
 0002:00001474       ??_C@_0BO@HHCIFDPC@code_LocalVariableTypeTable_N?$AA@ 1000d474     bands.obj
 0002:00001494       ??_C@_0CC@OECAEAHA@code_LocalVariableTypeTable_bci_@ 1000d494     bands.obj
 0002:000014b8       ??_C@_0CD@BAFAHGMB@code_LocalVariableTypeTable_span@ 1000d4b8     bands.obj
 0002:000014dc       ??_C@_0CE@BJEEHJII@code_LocalVariableTypeTable_name@ 1000d4dc     bands.obj
 0002:00001500       ??_C@_0CE@EJBMDAAB@code_LocalVariableTypeTable_type@ 1000d500     bands.obj
 0002:00001524       ??_C@_0CB@DCPKAFMH@code_LocalVariableTypeTable_slot@ 1000d524     bands.obj
 0002:00001548       ??_C@_0BA@FEDNGPIG@code_attr_bands?$AA@ 1000d548     bands.obj
 0002:00001558       ??_C@_08ILNCKCLH@bc_codes?$AA@ 1000d558     bands.obj
 0002:00001564       ??_C@_0O@NHDHOKJ@bc_case_count?$AA@ 1000d564     bands.obj
 0002:00001574       ??_C@_0O@IPODCEHE@bc_case_value?$AA@ 1000d574     bands.obj
 0002:00001584       ??_C@_07PBCCPPFP@bc_byte?$AA@ 1000d584     bands.obj
 0002:0000158c       ??_C@_08LLANNIAP@bc_short?$AA@ 1000d58c     bands.obj
 0002:00001598       ??_C@_08CNAAIOJJ@bc_local?$AA@ 1000d598     bands.obj
 0002:000015a4       ??_C@_08CNIFPPEB@bc_label?$AA@ 1000d5a4     bands.obj
 0002:000015b0       ??_C@_09LMIAJDCB@bc_intref?$AA@ 1000d5b0     bands.obj
 0002:000015bc       ??_C@_0M@GHNOKACA@bc_floatref?$AA@ 1000d5bc     bands.obj
 0002:000015c8       ??_C@_0L@FECALBEM@bc_longref?$AA@ 1000d5c8     bands.obj
 0002:000015d4       ??_C@_0N@BLIIPDNE@bc_doubleref?$AA@ 1000d5d4     bands.obj
 0002:000015e4       ??_C@_0N@MPKFBKGB@bc_stringref?$AA@ 1000d5e4     bands.obj
 0002:000015f4       ??_C@_0BE@JPNLPCGD@bc_loadablevalueref?$AA@ 1000d5f4     bands.obj
 0002:00001608       ??_C@_0M@IBEIOBLC@bc_classref?$AA@ 1000d608     bands.obj
 0002:00001614       ??_C@_0M@FHDAHFFG@bc_fieldref?$AA@ 1000d614     bands.obj
 0002:00001620       ??_C@_0N@KBJNFGEO@bc_methodref?$AA@ 1000d620     bands.obj
 0002:00001630       ??_C@_0O@BOILABNA@bc_imethodref?$AA@ 1000d630     bands.obj
 0002:00001640       ??_C@_0L@MEPMLOBJ@bc_indyref?$AA@ 1000d640     bands.obj
 0002:0000164c       ??_C@_0N@CGLIFEKH@bc_thisfield?$AA@ 1000d64c     bands.obj
 0002:0000165c       ??_C@_0O@NMPFAKNK@bc_superfield?$AA@ 1000d65c     bands.obj
 0002:0000166c       ??_C@_0O@OCHHHCLJ@bc_thismethod?$AA@ 1000d66c     bands.obj
 0002:0000167c       ??_C@_0P@MMDJDCGG@bc_supermethod?$AA@ 1000d67c     bands.obj
 0002:0000168c       ??_C@_0L@IAPCGJHG@bc_initref?$AA@ 1000d68c     bands.obj
 0002:00001698       ??_C@_09BGKIKDIC@bc_escref?$AA@ 1000d698     bands.obj
 0002:000016a4       ??_C@_0O@LHNEEOML@bc_escrefsize?$AA@ 1000d6a4     bands.obj
 0002:000016b4       ??_C@_0L@HJKABJFB@bc_escsize?$AA@ 1000d6b4     bands.obj
 0002:000016c0       ??_C@_0L@HOKHNNPG@bc_escbyte?$AA@ 1000d6c0     bands.obj
 0002:000016cc       ??_C@_09GOEDCGAO@file_name?$AA@ 1000d6cc     bands.obj
 0002:000016d8       ??_C@_0N@INICLDFG@file_size_hi?$AA@ 1000d6d8     bands.obj
 0002:000016e8       ??_C@_0N@NMNBLMAM@file_size_lo?$AA@ 1000d6e8     bands.obj
 0002:000016f8       ??_C@_0N@JMABFCDG@file_modtime?$AA@ 1000d6f8     bands.obj
 0002:00001708       ??_C@_0N@OPKBLMJG@file_options?$AA@ 1000d708     bands.obj
 0002:00001718       ??_C@_08FPGGDHDD@no?5index?$AA@ 1000d718     bands.obj
 0002:00001724       ??_C@_08CHILEFNK@null?5ref?$AA@ 1000d724     bands.obj
 0002:00001730       ??_C@_07MLPLAPLE@bad?5ref?$AA@ 1000d730     bands.obj
 0002:00001738       ??_C@_0BC@CJBOIHCG@overflow?5detected?$AA@ 1000d738     bands.obj
 0002:0000174c       ??_C@_0BJ@CALEAGEE@Native?5allocation?5failed?$AA@ 1000d74c     bytes.obj
 0002:0000177c       ??_C@_0BA@MMOCMGFH@bad?5value?5count?$AA@ 1000d77c     coding.obj
 0002:0000178c       ??_C@_0L@FLIJCFOD@bad?5coding?$AA@ 1000d78c     coding.obj
 0002:00001798       ??_C@_0BE@IIPOPKNG@illegal?5arb?4?5coding?$AA@ 1000d798     coding.obj
 0002:000017ac       ??_C@_0BF@OEPDPLDN@illegal?5run?5encoding?$AA@ 1000d7ac     coding.obj
 0002:000017c4       ??_C@_0BM@FJMGNNPG@illegal?5nested?5run?5encoding?$AA@ 1000d7c4     coding.obj
 0002:000017e0       ??_C@_0BF@JOAAKECG@illegal?5pop?5encoding?$AA@ 1000d7e0     coding.obj
 0002:000017f8       ??_C@_0BM@CDDFICON@illegal?5nested?5pop?5encoding?$AA@ 1000d7f8     coding.obj
 0002:00001814       ??_C@_0BG@HLIJPJNL@pop?4L?5value?5too?5small?$AA@ 1000d814     coding.obj
 0002:0000182c       ??_C@_0BH@OCEIAIEJ@pop?5token?5out?5of?5range?$AA@ 1000d82c     coding.obj
 0002:00001844       ??_C@_0CA@HBCNKKJO@bad?5meta?9coding?5for?5empty?5pop?1U?$AA@ 1000d844     coding.obj
 0002:00001864       ??_C@_0BA@DAENMACF@bad?5meta?9coding?$AA@ 1000d864     coding.obj
 0002:00001874       ??_C@_0P@DHEBFDOP@Internal?5error?$AA@ 1000d874     jni.obj
 0002:00001884       ??_C@_01LELAEKIP@J?$AA@    1000d884     jni.obj
 0002:00001888       ??_C@_0M@ODCCEGO@unpackerPtr?$AA@ 1000d888     jni.obj
 0002:00001894       ??_C@_0BK@MGOECGMC@cannot?5init?5class?5members?$AA@ 1000d894     jni.obj
 0002:000018b0       ??_C@_0BF@LHBAMMHC@?$CI?$CJLjava?1lang?1Object?$DL?$AA@ 1000d8b0     jni.obj
 0002:000018c8       ??_C@_0BA@HNJNGCPJ@currentInstance?$AA@ 1000d8c8     jni.obj
 0002:000018d8       ??_C@_0BK@KNKPMLAB@?$CILjava?1nio?1ByteBuffer?$DLJ?$CJJ?$AA@ 1000d8d8     jni.obj
 0002:000018f4       ??_C@_0M@OOANKPPH@readInputFn?$AA@ 1000d8f4     jni.obj
 0002:00001900       ??_C@_03IGDHHNNC@?$CI?$CJJ?$AA@ 1000d900     jni.obj
 0002:00001904       ??_C@_0P@BBAJIHLB@getUnpackerPtr?$AA@ 1000d904     jni.obj
 0002:00001944       ??_C@_02DPKJAMEF@?$CFd?$AA@ 1000d944     unpack.obj
 0002:00001948       ??_C@_0BC@DHBHLEDC@bad?5utf8?5encoding?$AA@ 1000d948     unpack.obj
 0002:0000195c       ??_C@_08MPEBFEBH@bad?5data?$AA@ 1000d95c     unpack.obj
 0002:00001968       ??_C@_0BI@MCADJHPK@missing?5class?5reference?$AA@ 1000d968     unpack.obj
 0002:00001980       ??_C@_0BJ@DINDGABB@Internal?5buffer?5overflow?$AA@ 1000d980     unpack.obj
 0002:0000199c       ??_C@_0BE@NBGJPKOJ@too?5much?5read?9ahead?$AA@ 1000d99c     unpack.obj
 0002:000019b0       ??_C@_0CB@MBENKFPE@EOF?5reading?5archive?5magic?5number@ 1000d9b0     unpack.obj
 0002:000019d4       ??_C@_0CF@INONBKGM@encountered?5a?5JAR?5header?5in?5unpa@ 1000d9d4     unpack.obj
 0002:00001a00       ??_C@_0GN@MIAOKBBJ@?$EACorrupted?5pack?5file?3?5magic?1ver?5@ 1000da00     unpack.obj
 0002:00001a70       ??_C@_0DJ@EOFNCHGA@Format?5bits?5for?5Java?57?5must?5be?5z@ 1000da70     unpack.obj
 0002:00001aac       ??_C@_0DH@PDJEDCEA@High?5archive?5option?5bits?5are?5res@ 1000daac     unpack.obj
 0002:00001ae4       ??_C@_0BP@CKGMAJKP@EOF?5reading?5fixed?5input?5buffer?$AA@ 1000dae4     unpack.obj
 0002:00001b04       ??_C@_0BI@EDJMKDIH@impossible?5archive?5size?$AA@ 1000db04     unpack.obj
 0002:00001b1c       ??_C@_0DE@HNNKIDEL@cannot?5allocate?5large?5input?5buff@ 1000db1c     unpack.obj
 0002:00001b50       ??_C@_0BL@KOJPDLNM@EOF?5reading?5archive?5header?$AA@ 1000db50     unpack.obj
 0002:00001b6c       ??_C@_0BJ@HODOOMDO@EOF?5reading?5band?5headers?$AA@ 1000db6c     unpack.obj
 0002:00001b88       ??_C@_0DB@HCOAOCOI@archive?5too?5large?3?5?5constant?5poo@ 1000db88     unpack.obj
 0002:00001bbc       ??_C@_0BA@BMKLBFBL@bad?5utf8?5suffix?$AA@ 1000dbbc     unpack.obj
 0002:00001bcc       ??_C@_0BA@HHOGEFOO@bad?5utf8?5prefix?$AA@ 1000dbcc     unpack.obj
 0002:00001bdc       ??_C@_0BF@HNBIPEII@utf8?5prefix?5overflow?$AA@ 1000dbdc     unpack.obj
 0002:00001bf4       ??_C@_0BE@INMEHPDO@unexpected?5band?5?$CFs?6?$AA@ 1000dbf4     unpack.obj
 0002:00001c08       ??_C@_0BKA@JMJPKLFN@01?$AASignature?$AADeprecated?$AARuntimeV@ 1000dc08     unpack.obj
 0002:00001da8       ??_C@_0BK@NOGBJPAL@attribute?5index?5too?5large?$AA@ 1000dda8     unpack.obj
 0002:00001dc4       ??_C@_0BK@OFNJKMED@redefined?5attribute?5index?$AA@ 1000ddc4     unpack.obj
 0002:00001de0       ??_C@_0BJ@OGDEGNBN@garbage?5at?5end?5of?5layout?$AA@ 1000dde0     unpack.obj
 0002:00001dfc       ??_C@_0BN@NJCEKHIO@garbage?5mixed?5with?5callables?$AA@ 1000ddfc     unpack.obj
 0002:00001e1c       ??_C@_0BD@BJONMNHI@bad?5call?5in?5layout?$AA@ 1000de1c     unpack.obj
 0002:00001e30       ??_C@_0BD@EOHIHJFP@bad?5layout?5element?$AA@ 1000de30     unpack.obj
 0002:00001e44       ??_C@_0BK@CHPLBKBJ@missing?5numeral?5in?5layout?$AA@ 1000de44     unpack.obj
 0002:00001e5e       ??_C@_00CNPNBAHC@?$AA@     1000de5e     unpack.obj
 0002:00001e60       ??_C@_0BB@FJJKEHGJ@numeral?5overflow?$AA@ 1000de60     unpack.obj
 0002:00001e74       ??_C@_0P@HDHNKEAB@bad?5union?5case?$AA@ 1000de74     unpack.obj
 0002:00001e84       ??_C@_0DD@PGOJPNFL@bad?5range?5in?5union?5case?5label?5?$CIo@ 1000de84     unpack.obj
 0002:00001eb8       ??_C@_0BO@JELFCPB@bad?5range?5in?5union?5case?5label?$AA@ 1000deb8     unpack.obj
 0002:00001ed8       ??_C@_0P@KBKJHJBF@bad?5case?5label?$AA@ 1000ded8     unpack.obj
 0002:00001ee8       ??_C@_0P@MNJPOPJO@bad?5call?5label?$AA@ 1000dee8     unpack.obj
 0002:00001ef8       ??_C@_0BF@ILAEDGAO@bad?5reference?5layout?$AA@ 1000def8     unpack.obj
 0002:00001f10       ??_C@_0BE@NGGDBALG@bad?5nested?5callable?$AA@ 1000df10     unpack.obj
 0002:00001f24       ??_C@_0L@FLEMDFJG@bad?5layout?$AA@ 1000df24     unpack.obj
 0002:00001f30       ??_C@_0JK@BMMFGJDP@?$FLNB?$FL?$CI1?$CJ?$FN?$FN?$FLNH?$FL?$CI1?$CJ?$FN?$FN?$FLRSHNH?$FLRUH?$CI1?$CJ?$FN@ 1000df30     unpack.obj
 0002:00001fcc       ??_C@_09MAEOCCFN@?$FLNB?$FL?$CI1?$CJ?$FN?$FN?$AA@ 1000dfcc     unpack.obj
 0002:00001fd8       ??_C@_0CC@PCCOCALL@?$FLNB?$FL?$CI1?$CJ?$FN?$FN?$FLNH?$FL?$CI1?$CJ?$FN?$FN?$FLRSHNH?$FLRUH?$CI1?$CJ?$FN@ 1000dfd8     unpack.obj
 0002:00002000       ??_C@_0BBL@GCIMMLOG@?$FLNH?$FL?$CI1?$CJ?$CI2?$CJ?$CI3?$CJ?$FN?$FN?$FLTB?$CI0?01?$CJ?$FLB?$FN?$CI16?$CJ?$FLF@ 1000e000     unpack.obj
 0002:0000211c       ??_C@_0BK@CIMGHPDJ@RuntimeVisibleAnnotations?$AA@ 1000e11c     unpack.obj
 0002:00002138       ??_C@_0BM@BNNGFNMF@RuntimeInvisibleAnnotations?$AA@ 1000e138     unpack.obj
 0002:00002154       ??_C@_0CD@ONLIBICP@RuntimeVisibleParameterAnnotatio@ 1000e154     unpack.obj
 0002:00002178       ??_C@_0CF@BFEAEHFK@RuntimeInvisibleParameterAnnotat@ 1000e178     unpack.obj
 0002:000021a0       ??_C@_0BC@DAGIEPHG@AnnotationDefault?$AA@ 1000e1a0     unpack.obj
 0002:000021b4       ??_C@_0BO@IJLELCEA@RuntimeVisibleTypeAnnotations?$AA@ 1000e1b4     unpack.obj
 0002:000021d4       ??_C@_0CA@GCLMFPKD@RuntimeInvisibleTypeAnnotations?$AA@ 1000e1d4     unpack.obj
 0002:000021f4       ??_C@_0BG@FDJMCAOP@identical?5inner?5class?$AA@ 1000e1f4     unpack.obj
 0002:0000220c       ??_C@_0BN@GFADPNEE@undefined?5attribute?5flag?5bit?$AA@ 1000e20c     unpack.obj
 0002:0000222c       ??_C@_0BO@CMGKNLIA@attribute?5index?5out?5of?5bounds?$AA@ 1000e22c     unpack.obj
 0002:0000224c       ??_C@_0DH@OHIKFIJI@undefined?5StackMapTable?5attribut@ 1000e24c     unpack.obj
 0002:00002284       ??_C@_0CE@NENNCDNJ@putlayout?3?5unexpected?5NULL?5for?5b@ 1000e284     unpack.obj
 0002:000022a8       ??_C@_0BB@HNCAJEIE@cp?5utf8?5overflow?$AA@ 1000e2a8     unpack.obj
 0002:000022bc       ??_C@_0BC@IJJDHGHN@cp?5class?5overflow?$AA@ 1000e2bc     unpack.obj
 0002:000022d0       ??_C@_0BE@DAFJFMML@unpack?4deflate?4hint?$AA@ 1000e2d0     unpack.obj
 0002:000022e4       ??_C@_0DC@KGJOKPLE@com?4sun?4java?4util?4jar?4pack?4unpac@ 1000e2e4     unpack.obj
 0002:00002318       ??_C@_0CD@CEMFBAGC@com?4sun?4java?4util?4jar?4pack?4verbo@ 1000e318     unpack.obj
 0002:0000233c       ??_C@_0DE@FNJPLIMN@com?4sun?4java?4util?4jar?4pack?4unpac@ 1000e33c     unpack.obj
 0002:00002370       ??_C@_0CL@JFLJFCLE@com?4sun?4java?4util?4jar?4pack?4unpac@ 1000e370     unpack.obj
 0002:0000239c       ??_C@_04LKOEDJLC@keep?$AA@ 1000e39c     unpack.obj
 0002:000023a4       ??_C@_0CJ@LFNCLCEP@com?4sun?4java?4util?4jar?4pack?4verbo@ 1000e3a4     unpack.obj
 0002:000023d0       ??_C@_03CGLHMDPP@now?$AA@  1000e3d0     unpack.obj
 0002:000023d4       ??_C@_01JOAMLHOP@?9?$AA@   1000e3d4     unpack.obj
 0002:000023d8       ??_C@_0BB@MNFIFPBF@bad?5KQ?5reference?$AA@ 1000e3d8     unpack.obj
 0002:000023ec       ??_C@_0L@PDBBHOGB@bad?5bcimap?$AA@ 1000e3ec     unpack.obj
 0002:000023f8       ??_C@_0BM@GPDDEOEP@too?5many?5InnerClasses?5attrs?$AA@ 1000e3f8     unpack.obj
 0002:00002414       ??_C@_05PBJILJE@?4java?$AA@ 1000e414     unpack.obj
 0002:0000241c       ??_C@_0BB@MICPNADP@bad?5layout?5index?$AA@ 1000e41c     unpack.obj
 0002:00002430       ??_C@_0BE@BKLBLMJK@bad?5attribute?5index?$AA@ 1000e430     unpack.obj
 0002:00002444       ??_C@_0BN@CLDGGNCI@bad?5reference?5to?5inner?5class?$AA@ 1000e444     unpack.obj
 0002:00002464       ??_C@_0CC@IOEIADGN@archive?5header?5had?5incorrect?5siz@ 1000e464     unpack.obj
 0002:00002488       ??_C@_0BM@NDDMOHPH@class?5file?5size?5transmitted?$AA@ 1000e488     unpack.obj
 0002:000024a4       ??_C@_06POIMOJKC@?4class?$AA@ 1000e4a4     unpack.obj
 0002:000024ac       ??_C@_0BI@CDCINJGA@resource?5file?5too?5large?$AA@ 1000e4ac     unpack.obj
 0002:000024c4       ??_C@_02DPNLHKJD@a?$CL?$AA@ 1000e4c4     unpack.obj
 0002:000024c8       ??_C@_0BK@NDLGHGBM@Can?5not?5open?5log?5file?5?$CFs?6?$AA@ 1000e4c8     unpack.obj
 0002:000024e4       ??_C@_0BI@CELHNJPG@error?5unpacking?5archive?$AA@ 1000e4e4     unpack.obj
 0002:00002500       __xmm@00000000000000ab00000001000000aa 1000e500     unpack.obj
 0002:00002510       __xmm@00000001000000a00000000700000096 1000e510     unpack.obj
 0002:00002520       ??_C@_0CE@HLJAOJEP@corrupt?5pack?5file?5or?5internal?5er@ 1000e520     utils.obj
 0002:00002544       ??_C@_0BF@JFFKOPFD@Error?3?5unpacker?3?5?$CFs?6?$AA@ 1000e544     utils.obj
 0002:0000255c       ??_C@_0CG@HFNCMKIN@Error?3?5unpacker?3?5no?5current?5inst@ 1000e55c     utils.obj
 0002:00002590       __pRawDllMain              1000e590     MSVCRT:crtdll.obj
 0002:00002590       __pDefaultRawDllMain       1000e590     MSVCRT:crtdll.obj
 0002:000025a0       __load_config_used         1000e5a0     MSVCRT:loadcfg.obj
 0002:00002680       ___safe_se_handler_table   1000e680     <linker-defined>
 0002:00002684       ___rtc_iaa                 1000e684     MSVCRT:initsect.obj
 0002:00002688       ___rtc_izz                 1000e688     MSVCRT:initsect.obj
 0002:0000268c       ___rtc_taa                 1000e68c     MSVCRT:initsect.obj
 0002:00002690       ___rtc_tzz                 1000e690     MSVCRT:initsect.obj
 0002:00002914       __IMPORT_DESCRIPTOR_jvm    1000e914     jvm:jvm.dll
 0002:00002928       __IMPORT_DESCRIPTOR_java   1000e928     java:java.dll
 0002:0000293c       __IMPORT_DESCRIPTOR_MSVCR120 1000e93c     MSVCRT:MSVCR120.dll
 0002:00002950       __IMPORT_DESCRIPTOR_KERNEL32 1000e950     kernel32:KERNEL32.dll
 0002:00002964       __NULL_IMPORT_DESCRIPTOR   1000e964     jvm:jvm.dll
 0003:00000000       ?basic_codings@@3PAUcoding@@A 1000f000     coding.obj
 0003:00000af8       ___security_cookie         1000faf8     MSVCRT:gs_cookie.obj
 0003:00000afc       ___security_cookie_complement 1000fafc     MSVCRT:gs_cookie.obj
 0003:00000b00       ___native_dllmain_reason   1000fb00     MSVCRT:natstart.obj
 0003:00001268       ?__type_info_root_node@@3U__type_info_node@@A 10010268     MSVCRT:tncleanup.obj
 0003:00001270       ___native_startup_lock     10010270     <common>
 0003:00001274       ___native_startup_state    10010274     <common>
 0003:00001278       ___onexitend               10010278     <common>
 0003:0000127c       ___onexitbegin             1001027c     <common>
 0003:00001280       ___dyn_tls_init_callback   10010280     <common>

 entry point at        0001:00009c25

 Static symbols

 0000:fffed000       .debug$S                   10000000     MSVCRT:MSVCR120.dll
 0000:fffed000       .debug$S                   10000000     MSVCRT:MSVCR120.dll
 0000:fffed000       .debug$S                   10000000     MSVCRT:MSVCR120.dll
 0000:fffed000       .debug$S                   10000000     MSVCRT:MSVCR120.dll
 0000:fffed000       .debug$S                   10000000     MSVCRT:MSVCR120.dll
 0000:fffed000       .debug$S                   10000000     MSVCRT:MSVCR120.dll
 0000:fffed000       .debug$S                   10000000     MSVCRT:MSVCR120.dll
 0000:fffed000       .debug$S                   10000000     MSVCRT:MSVCR120.dll
 0000:fffed000       .debug$S                   10000000     MSVCRT:MSVCR120.dll
 0000:fffed000       .debug$S                   10000000     MSVCRT:MSVCR120.dll
 0000:fffed000       .debug$S                   10000000     MSVCRT:MSVCR120.dll
 0000:fffed000       .debug$S                   10000000     MSVCRT:MSVCR120.dll
 0000:fffed000       .debug$S                   10000000     MSVCRT:MSVCR120.dll
 0000:fffed000       .debug$S                   10000000     MSVCRT:MSVCR120.dll
 0000:fffed000       .debug$S                   10000000     MSVCRT:MSVCR120.dll
 0000:fffed000       .debug$S                   10000000     kernel32:KERNEL32.dll
 0000:fffed000       .debug$S                   10000000     kernel32:KERNEL32.dll
 0000:fffed000       .debug$S                   10000000     kernel32:KERNEL32.dll
 0000:fffed000       .debug$S                   10000000     kernel32:KERNEL32.dll
 0000:fffed000       .debug$S                   10000000     MSVCRT:MSVCR120.dll
 0000:fffed000       .debug$S                   10000000     MSVCRT:MSVCR120.dll
 0000:fffed000       .debug$S                   10000000     MSVCRT:MSVCR120.dll
 0000:fffed000       .debug$S                   10000000     MSVCRT:MSVCR120.dll
 0000:fffed000       .debug$S                   10000000     MSVCRT:MSVCR120.dll
 0000:fffed000       .debug$S                   10000000     MSVCRT:MSVCR120.dll
 0000:fffed000       .debug$S                   10000000     MSVCRT:MSVCR120.dll
 0000:fffed000       .debug$S                   10000000     MSVCRT:MSVCR120.dll
 0000:fffed000       .debug$S                   10000000     MSVCRT:MSVCR120.dll
 0000:fffed000       .debug$S                   10000000     MSVCRT:MSVCR120.dll
 0000:fffed000       .debug$S                   10000000     MSVCRT:MSVCR120.dll
 0000:fffed000       .debug$S                   10000000     MSVCRT:MSVCR120.dll
 0000:fffed000       .debug$S                   10000000     MSVCRT:MSVCR120.dll
 0000:fffed000       .debug$S                   10000000     kernel32:KERNEL32.dll
 0000:fffed000       .debug$S                   10000000     MSVCRT:MSVCR120.dll
 0000:fffed000       .debug$S                   10000000     MSVCRT:MSVCR120.dll
 0000:fffed000       .debug$S                   10000000     MSVCRT:MSVCR120.dll
 0000:fffed000       .debug$S                   10000000     MSVCRT:MSVCR120.dll
 0000:fffed000       .debug$S                   10000000     kernel32:KERNEL32.dll
 0000:fffed000       .debug$S                   10000000     kernel32:KERNEL32.dll
 0000:fffed000       .debug$S                   10000000     kernel32:KERNEL32.dll
 0000:fffed000       .debug$S                   10000000     kernel32:KERNEL32.dll
 0000:fffed000       .debug$S                   10000000     MSVCRT:MSVCR120.dll
 0000:fffed000       .debug$S                   10000000     MSVCRT:MSVCR120.dll
 0000:fffed000       .debug$S                   10000000     MSVCRT:MSVCR120.dll
 0000:fffed000       .debug$S                   10000000     MSVCRT:MSVCR120.dll
 0000:fffed000       .debug$S                   10000000     MSVCRT:MSVCR120.dll
 0000:fffed000       .debug$S                   10000000     MSVCRT:MSVCR120.dll
 0000:fffed000       .debug$S                   10000000     MSVCRT:MSVCR120.dll
 0000:fffed000       .debug$S                   10000000     MSVCRT:MSVCR120.dll
 0000:fffed000       .debug$S                   10000000     MSVCRT:MSVCR120.dll
 0000:fffed000       .debug$S                   10000000     jvm:jvm.dll
 0000:fffed000       .debug$S                   10000000     MSVCRT:MSVCR120.dll
 0000:fffed000       .debug$S                   10000000     java:java.dll
 0000:fffed000       .debug$S                   10000000     MSVCRT:MSVCR120.dll
 0000:fffed000       .debug$S                   10000000     MSVCRT:MSVCR120.dll
 0000:fffed000       .debug$S                   10000000     MSVCRT:MSVCR120.dll
 0000:fffed000       .debug$S                   10000000     MSVCRT:MSVCR120.dll
 0000:fffed000       .debug$S                   10000000     MSVCRT:MSVCR120.dll
 0001:0000076e       ?decode_sign@@YAHHI@Z      1000176e f   coding.obj
 0001:0000085f       ?getDeltaValue@@YAHPAUvalue_stream@@I_N@Z 1000185f f   coding.obj
 0001:00000aa9       $LN55                      10001aa9     coding.obj
 0001:00000ae9       ?getPopValue@@YAHPAUvalue_stream@@I@Z 10001ae9 f   coding.obj
 0001:00001779       ?free_unpacker@@YAXPAUJNIEnv_@@PAV_jobject@@PAUunpacker@@@Z 10002779 f   jni.obj
 0001:000017ba       ?get_unpacker@@YAPAUunpacker@@PAUJNIEnv_@@PAV_jobject@@_N@Z 100027ba f   jni.obj
 0001:0000184b       ?get_unpacker@@YAPAUunpacker@@XZ 1000284b f   jni.obj
 0001:000018d8       ?read_input_via_jni@@YA_JPAUunpacker@@PAX_J2@Z 100028d8 f   jni.obj
 0001:0000211e       ?compare_Utf8_chars@@YAHAAUbytes@@0@Z 1000311e f   unpack.obj
 0001:0000368d       ?isDigitString@@YA_NAAUbytes@@HH@Z 1000468d f   unpack.obj
 0001:00003755       ?is_branch_op@@YA_NH@Z     10004755 f   unpack.obj
 0001:00003776       ?is_local_slot_op@@YA_NH@Z 10004776 f   unpack.obj
 0001:000037a1       ?lastIndexOf@@YAHHHAAUbytes@@H@Z 100047a1 f   unpack.obj
 0001:0000624d       $LN62                      1000724d     unpack.obj
 0001:00007517       $LN21                      10008517     unpack.obj
 0001:00007971       ?store_Utf8_char@@YAPACPACG@Z 10008971 f   unpack.obj
 0001:00008f1e       $LN51                      10009f1e     unpack.obj
 0001:00008f3a       $LN48                      10009f3a     unpack.obj
 0001:00009970       $$000000                   1000a970     MSVCRT:llmul.obj
 0001:000099b0       $$000000                   1000a9b0     MSVCRT:ullshr.obj
 0001:000099e2       _pre_c_init                1000a9e2 f   MSVCRT:crtdll.obj
 0001:00009c48       ___DllMainCRTStartup       1000ac48 f   MSVCRT:crtdll.obj
 0001:0000a220       $$000000                   1000b220     MSVCRT:sehprolg4.obj
 0002:000000dc       _pcinit                    1000c0dc     MSVCRT:crtdll.obj
 0002:000000e0       _pinit                     1000c0e0     MSVCRT:atonexit.obj
 0002:00000128       _all_band_inits            1000c128     bands.obj
 0002:00001768       _ERB                       1000d768     coding.obj
 0002:00001914       _TAG_ORDER                 1000d914     unpack.obj
 0002:00001928       _str_tf                    1000d928     unpack.obj
 0002:00001934       _TAGS_IN_ORDER             1000d934     unpack.obj
 0002:00002584       _jarmagic                  1000e584     zip.obj
 0002:00002588       _marker_comment            1000e588     zip.obj
 0002:00002594       _GS_ExceptionPointers      1000e594     MSVCRT:gs_report.obj
 0002:00002698       __sehtable$___DllMainCRTStartup 1000e698     MSVCRT:crtdll.obj
 0002:000026c0       __sehtable$__IsNonwritableInCurrentImage 1000e6c0     MSVCRT:pesect.obj
 0002:000026e0       __sehtable$__onexit        1000e6e0     MSVCRT:atonexit.obj
 0002:00002700       .edata                     1000e700     unpack.exp
 0002:00002728       rgpv                       1000e728     unpack.exp
 0002:00002744       rgszName                   1000e744     unpack.exp
 0002:00002760       rgwOrd                     1000e760     unpack.exp
 0002:0000276e       szName                     1000e76e     unpack.exp
 0002:00002779       $N00001                    1000e779     unpack.exp
 0002:000027b0       $N00002                    1000e7b0     unpack.exp
 0002:000027ed       $N00003                    1000e7ed     unpack.exp
 0002:00002828       $N00004                    1000e828     unpack.exp
 0002:00002867       $N00005                    1000e867     unpack.exp
 0002:0000289f       $N00006                    1000e89f     unpack.exp
 0002:000028da       $N00007                    1000e8da     unpack.exp
 0002:00002a60       .idata$6                   1000ea60     jvm:jvm.dll
 0002:00002a82       .idata$6                   1000ea82     java:java.dll
 0002:00002b70       .idata$6                   1000eb70     MSVCRT:MSVCR120.dll
 0002:00002d50       .idata$6                   1000ed50     kernel32:KERNEL32.dll
 0003:00000b08       _dummy                     1000fb08     bytes.obj
 0003:00000f08       _no_meta                   1000ff08     coding.obj
 0003:00000f0c       _dbg                       1000ff0c     jni.obj
 0003:00000f10       _unpackerPtrFID            1000ff10     jni.obj
 0003:00000f14       _currentInstMID            1000ff14     jni.obj
 0003:00000f18       _readInputMID              1000ff18     jni.obj
 0003:00000f1c       _NIclazz                   1000ff1c     jni.obj
 0003:00000f20       _getUnpackerPtrMID         1000ff20     jni.obj
 0003:00000f24       _total_cp_size             1000ff24     unpack.obj
 0003:00000f2c       _largest_cp_ref            1000ff2c     unpack.obj
 0003:00000f34       _hash_probes               1000ff34     unpack.obj
 0003:00000f3c       _no_bands                  1000ff3c     unpack.obj
 0003:00000f40       ___proc_attached           1000ff40     MSVCRT:crtdll.obj
 0003:00000f48       _GS_ExceptionRecord        1000ff48     MSVCRT:gs_report.obj
 0003:00000f98       _GS_ContextRecord          1000ff98     MSVCRT:gs_report.obj
 0003:00001264       _DebuggerWasPresent        10010264     MSVCRT:gs_report.obj
 0004:00000060       $R000000                   10011060     unpack.dll.res
